target datalayout = "e-m:e-p270:32:32-p271:32:32-p272:64:64-i64:64-i128:128-f80:128-n8:16:32:64-S128"
target triple = "x86_64-pc-linux-gnu"

%struct.ParseRule = type { ptr, ptr, i32 }
%struct.Vmem = type { ptr, i64, i64 }
%struct.ParseContext_ = type { %struct.TokenData, i32, %union.SourceSpan, %union.SourceSpan, ptr, %struct.Lexer }
%struct.TokenData = type { ptr, i64, %union.anon.86 }
%union.anon.86 = type { %struct.anon.89 }
%struct.anon.89 = type { %struct.Int128_, i8 }
%struct.Int128_ = type { i64, i64 }
%union.SourceSpan = type { i64 }
%struct.Lexer = type { ptr, ptr, ptr, ptr, i32, i32, ptr, ptr, ptr, %struct.TokenData, %union.SourceSpan, i32, i32 }
%struct.Expr_ = type { ptr, %union.SourceSpan, i16, %union.anon.30 }
%union.anon.30 = type { %struct.ExprAnySwitch }
%struct.ExprAnySwitch = type { i8, %union.anon.32 }
%union.anon.32 = type { %struct.anon.33 }
%struct.anon.33 = type { ptr, %union.SourceSpan, ptr }
%struct.anon.0 = type { i16, i8, i8, i32 }
%struct.ExprTernary = type { i32, i32, i32, i8 }

@poisoned_expr = external global ptr, align 8
@expr_arena = external global %struct.Vmem, align 8
@.str.22 = private unnamed_addr constant [15 x i8] c"Expected '%s'.\00", align 1

; Function Attrs: nounwind uwtable
define dso_local ptr @parse_expr(ptr noundef %0) #0 {
  %2 = alloca ptr, align 8
  store ptr %0, ptr %2, align 8
  %3 = load ptr, ptr %2, align 8
  %4 = call ptr @parse_precedence(ptr noundef %3, i32 noundef 1)
  ret ptr %4
}

; Function Attrs: nounwind uwtable
define internal i32 @exprid(ptr noundef %0) #0 {
  %2 = alloca ptr, align 8
  store ptr %0, ptr %2, align 8
  %3 = load ptr, ptr %2, align 8
  %4 = load ptr, ptr @expr_arena, align 8
  %5 = ptrtoint ptr %3 to i64
  %6 = ptrtoint ptr %4 to i64
  %7 = sub i64 %5, %6
  %8 = sdiv exact i64 %7, 56
  %9 = trunc i64 %8 to i32
  ret i32 %9
}

; Function Attrs: nounwind uwtable
define internal i64 @extend_span_with_token(i64 %0, i64 %1) #0 {
  %3 = alloca %union.SourceSpan, align 8
  %4 = alloca %union.SourceSpan, align 8
  %5 = alloca %union.SourceSpan, align 8
  %6 = getelementptr inbounds %union.SourceSpan, ptr %4, i32 0, i32 0
  store i64 %0, ptr %6, align 8
  %7 = getelementptr inbounds %union.SourceSpan, ptr %5, i32 0, i32 0
  store i64 %1, ptr %7, align 8
  %8 = getelementptr inbounds %struct.anon.0, ptr %4, i32 0, i32 3
  %9 = load i32, ptr %8, align 4
  %10 = getelementptr inbounds %struct.anon.0, ptr %5, i32 0, i32 3
  %11 = load i32, ptr %10, align 4
  %12 = icmp ne i32 %9, %11
  br i1 %12, label %13, label %14

13:                                               ; preds = %2
  call void @llvm.memcpy.p0.p0.i64(ptr align 8 %3, ptr align 8 %4, i64 8, i1 false)
  br label %28

14:                                               ; preds = %2
  %15 = getelementptr inbounds %struct.anon.0, ptr %5, i32 0, i32 2
  %16 = load i8, ptr %15, align 1
  %17 = zext i8 %16 to i32
  %18 = getelementptr inbounds %struct.anon.0, ptr %5, i32 0, i32 1
  %19 = load i8, ptr %18, align 2
  %20 = zext i8 %19 to i32
  %21 = add nsw i32 %17, %20
  %22 = getelementptr inbounds %struct.anon.0, ptr %4, i32 0, i32 2
  %23 = load i8, ptr %22, align 1
  %24 = zext i8 %23 to i32
  %25 = sub nsw i32 %21, %24
  %26 = trunc i32 %25 to i8
  %27 = getelementptr inbounds %struct.anon.0, ptr %4, i32 0, i32 1
  store i8 %26, ptr %27, align 2
  call void @llvm.memcpy.p0.p0.i64(ptr align 8 %3, ptr align 8 %4, i64 8, i1 false)
  br label %28

28:                                               ; preds = %14, %13
  %29 = getelementptr inbounds %union.SourceSpan, ptr %3, i32 0, i32 0
  %30 = load i64, ptr %29, align 8
  ret i64 %30
}

; Function Attrs: nounwind uwtable
define internal ptr @parse_ternary_expr(ptr noundef %0, ptr noundef %1) #0 {
  %3 = alloca ptr, align 8
  %4 = alloca i32, align 4
  %5 = alloca ptr, align 8
  %6 = alloca ptr, align 8
  %7 = alloca i32, align 4
  %8 = alloca i1, align 1
  %9 = alloca ptr, align 8
  %10 = alloca i32, align 4
  %11 = alloca ptr, align 8
  %12 = alloca i32, align 4
  %13 = alloca ptr, align 8
  %14 = alloca ptr, align 8
  %15 = alloca ptr, align 8
  %16 = alloca ptr, align 8
  %17 = alloca ptr, align 8
  %18 = alloca ptr, align 8
  %19 = alloca %union.SourceSpan, align 8
  %20 = alloca ptr, align 8
  %21 = alloca ptr, align 8
  %22 = alloca ptr, align 8
  %23 = alloca %union.SourceSpan, align 8
  store ptr %0, ptr %16, align 8
  store ptr %1, ptr %17, align 8
  %24 = load ptr, ptr %17, align 8
  store i32 55, ptr %4, align 4
  store ptr %24, ptr %5, align 8
  %25 = load i32, ptr %4, align 4
  %26 = load ptr, ptr %5, align 8
  %27 = getelementptr inbounds %struct.Expr_, ptr %26, i32 0, i32 1
  %28 = load i64, ptr %27, align 8
  %29 = call ptr @expr_new(i32 noundef %25, i64 %28) #5
  store ptr %29, ptr %18, align 8
  %30 = load ptr, ptr %16, align 8
  store ptr %30, ptr %11, align 8
  store i32 23, ptr %12, align 4
  %31 = load ptr, ptr %11, align 8
  call void @advance(ptr noundef %31) #5
  %32 = load ptr, ptr %16, align 8
  %33 = getelementptr inbounds %struct.ParseContext_, ptr %32, i32 0, i32 1
  %34 = load i32, ptr %33, align 8
  %35 = zext i32 %34 to i64
  %36 = getelementptr inbounds [190 x %struct.ParseRule], ptr @rules, i64 0, i64 %35
  %37 = getelementptr inbounds %struct.ParseRule, ptr %36, i32 0, i32 0
  %38 = load ptr, ptr %37, align 8
  %39 = icmp ne ptr %38, null
  br i1 %39, label %40, label %56

40:                                               ; preds = %2
  %41 = load ptr, ptr %16, align 8
  %42 = getelementptr inbounds %struct.ParseContext_, ptr %41, i32 0, i32 1
  %43 = load i32, ptr %42, align 8
  %44 = icmp eq i32 %43, 3
  br i1 %44, label %45, label %80

45:                                               ; preds = %40
  %46 = load ptr, ptr %16, align 8
  store ptr %46, ptr %3, align 8
  %47 = load ptr, ptr %3, align 8
  %48 = getelementptr inbounds %struct.ParseContext_, ptr %47, i32 0, i32 5
  %49 = getelementptr inbounds %struct.Lexer, ptr %48, i32 0, i32 11
  %50 = load i32, ptr %49, align 8
  %51 = zext i32 %50 to i64
  %52 = getelementptr inbounds [190 x %struct.ParseRule], ptr @rules, i64 0, i64 %51
  %53 = getelementptr inbounds %struct.ParseRule, ptr %52, i32 0, i32 0
  %54 = load ptr, ptr %53, align 8
  %55 = icmp ne ptr %54, null
  br i1 %55, label %80, label %56

56:                                               ; preds = %45, %2
  %57 = load ptr, ptr %18, align 8
  %58 = getelementptr inbounds %struct.Expr_, ptr %57, i32 0, i32 2
  %59 = load i16, ptr %58, align 8
  %60 = and i16 %59, -256
  %61 = or i16 %60, 29
  store i16 %61, ptr %58, align 8
  %62 = load ptr, ptr %17, align 8
  %63 = load ptr, ptr %18, align 8
  %64 = getelementptr inbounds %struct.Expr_, ptr %63, i32 0, i32 3
  store ptr %62, ptr %64, align 8
  br label %65

65:                                               ; preds = %56
  %66 = load ptr, ptr %18, align 8
  %67 = getelementptr inbounds %struct.Expr_, ptr %66, i32 0, i32 1
  %68 = load ptr, ptr %18, align 8
  %69 = getelementptr inbounds %struct.Expr_, ptr %68, i32 0, i32 1
  %70 = load ptr, ptr %16, align 8
  %71 = getelementptr inbounds %struct.ParseContext_, ptr %70, i32 0, i32 3
  %72 = getelementptr inbounds %union.SourceSpan, ptr %69, i32 0, i32 0
  %73 = load i64, ptr %72, align 8
  %74 = getelementptr inbounds %union.SourceSpan, ptr %71, i32 0, i32 0
  %75 = load i64, ptr %74, align 8
  %76 = call i64 @extend_span_with_token(i64 %73, i64 %75)
  %77 = getelementptr inbounds %union.SourceSpan, ptr %19, i32 0, i32 0
  store i64 %76, ptr %77, align 8
  call void @llvm.memcpy.p0.p0.i64(ptr align 8 %67, ptr align 8 %19, i64 8, i1 false)
  br label %78

78:                                               ; preds = %65
  %79 = load ptr, ptr %18, align 8
  store ptr %79, ptr %15, align 8
  br label %169

80:                                               ; preds = %45, %40
  %81 = load ptr, ptr %17, align 8
  %82 = call i32 @exprid(ptr noundef %81)
  %83 = load ptr, ptr %18, align 8
  %84 = getelementptr inbounds %struct.Expr_, ptr %83, i32 0, i32 3
  %85 = getelementptr inbounds %struct.ExprTernary, ptr %84, i32 0, i32 0
  store i32 %82, ptr %85, align 8
  %86 = load ptr, ptr %16, align 8
  %87 = call ptr @parse_expr(ptr noundef %86)
  store ptr %87, ptr %20, align 8
  %88 = load ptr, ptr %20, align 8
  store ptr %88, ptr %13, align 8
  %89 = load ptr, ptr %13, align 8
  %90 = icmp eq ptr %89, null
  br i1 %90, label %98, label %91

91:                                               ; preds = %80
  %92 = load ptr, ptr %13, align 8
  %93 = getelementptr inbounds %struct.Expr_, ptr %92, i32 0, i32 2
  %94 = load i16, ptr %93, align 8
  %95 = and i16 %94, 255
  %96 = zext i16 %95 to i32
  %97 = icmp ne i32 %96, 0
  br label %98

98:                                               ; preds = %91, %80
  %99 = phi i1 [ true, %80 ], [ %97, %91 ]
  br i1 %99, label %102, label %100

100:                                              ; preds = %98
  %101 = load ptr, ptr @poisoned_expr, align 8
  store ptr %101, ptr %15, align 8
  br label %169

102:                                              ; preds = %98
  %103 = load ptr, ptr %20, align 8
  store ptr %103, ptr %21, align 8
  %104 = load ptr, ptr %21, align 8
  %105 = call i32 @exprid(ptr noundef %104)
  %106 = load ptr, ptr %18, align 8
  %107 = getelementptr inbounds %struct.Expr_, ptr %106, i32 0, i32 3
  %108 = getelementptr inbounds %struct.ExprTernary, ptr %107, i32 0, i32 1
  store i32 %105, ptr %108, align 4
  br label %109

109:                                              ; preds = %102
  %110 = load ptr, ptr %16, align 8
  store ptr %110, ptr %9, align 8
  store i32 7, ptr %10, align 4
  %111 = load ptr, ptr %9, align 8
  %112 = load i32, ptr %10, align 4
  store ptr %111, ptr %6, align 8
  store i32 %112, ptr %7, align 4
  %113 = load ptr, ptr %6, align 8
  %114 = getelementptr inbounds %struct.ParseContext_, ptr %113, i32 0, i32 1
  %115 = load i32, ptr %114, align 8
  %116 = load i32, ptr %7, align 4
  %117 = icmp eq i32 %115, %116
  br i1 %117, label %118, label %119

118:                                              ; preds = %109
  store i1 true, ptr %8, align 1
  br label %125

119:                                              ; preds = %109
  %120 = load ptr, ptr %9, align 8
  %121 = getelementptr inbounds %struct.ParseContext_, ptr %120, i32 0, i32 2
  %122 = load i32, ptr %10, align 4
  %123 = call ptr @token_type_to_string(i32 noundef %122) #5
  %124 = load i64, ptr %121, align 8
  call void (i64, ptr, ...) @sema_error_at(i64 %124, ptr noundef @.str.22, ptr noundef %123) #5
  store i1 false, ptr %8, align 1
  br label %125

125:                                              ; preds = %119, %118
  %126 = load i1, ptr %8, align 1
  br i1 %126, label %129, label %127

127:                                              ; preds = %125
  %128 = load ptr, ptr @poisoned_expr, align 8
  store ptr %128, ptr %15, align 8
  br label %169

129:                                              ; preds = %125
  %130 = load ptr, ptr %16, align 8
  call void @advance(ptr noundef %130)
  br label %131

131:                                              ; preds = %129
  %132 = load ptr, ptr %16, align 8
  %133 = call ptr @parse_precedence(ptr noundef %132, i32 noundef 2)
  store ptr %133, ptr %22, align 8
  %134 = load ptr, ptr %22, align 8
  store ptr %134, ptr %14, align 8
  %135 = load ptr, ptr %14, align 8
  %136 = icmp eq ptr %135, null
  br i1 %136, label %144, label %137

137:                                              ; preds = %131
  %138 = load ptr, ptr %14, align 8
  %139 = getelementptr inbounds %struct.Expr_, ptr %138, i32 0, i32 2
  %140 = load i16, ptr %139, align 8
  %141 = and i16 %140, 255
  %142 = zext i16 %141 to i32
  %143 = icmp ne i32 %142, 0
  br label %144

144:                                              ; preds = %137, %131
  %145 = phi i1 [ true, %131 ], [ %143, %137 ]
  br i1 %145, label %148, label %146

146:                                              ; preds = %144
  %147 = load ptr, ptr @poisoned_expr, align 8
  store ptr %147, ptr %15, align 8
  br label %169

148:                                              ; preds = %144
  %149 = load ptr, ptr %22, align 8
  %150 = call i32 @exprid(ptr noundef %149)
  %151 = load ptr, ptr %18, align 8
  %152 = getelementptr inbounds %struct.Expr_, ptr %151, i32 0, i32 3
  %153 = getelementptr inbounds %struct.ExprTernary, ptr %152, i32 0, i32 2
  store i32 %150, ptr %153, align 8
  br label %154

154:                                              ; preds = %148
  %155 = load ptr, ptr %18, align 8
  %156 = getelementptr inbounds %struct.Expr_, ptr %155, i32 0, i32 1
  %157 = load ptr, ptr %18, align 8
  %158 = getelementptr inbounds %struct.Expr_, ptr %157, i32 0, i32 1
  %159 = load ptr, ptr %16, align 8
  %160 = getelementptr inbounds %struct.ParseContext_, ptr %159, i32 0, i32 3
  %161 = getelementptr inbounds %union.SourceSpan, ptr %158, i32 0, i32 0
  %162 = load i64, ptr %161, align 8
  %163 = getelementptr inbounds %union.SourceSpan, ptr %160, i32 0, i32 0
  %164 = load i64, ptr %163, align 8
  %165 = call i64 @extend_span_with_token(i64 %162, i64 %164)
  %166 = getelementptr inbounds %union.SourceSpan, ptr %23, i32 0, i32 0
  store i64 %165, ptr %166, align 8
  call void @llvm.memcpy.p0.p0.i64(ptr align 8 %156, ptr align 8 %23, i64 8, i1 false)
  br label %167

167:                                              ; preds = %154
  %168 = load ptr, ptr %18, align 8
  store ptr %168, ptr %15, align 8
  br label %169

169:                                              ; preds = %167, %146, %127, %100, %78
  %170 = load ptr, ptr %15, align 8
  ret ptr %170
}