; Function Attrs: nounwind uwtable
define internal ptr @parse_ternary_expr(ptr noundef %0, ptr noundef %1) #1 {
  %3 = getelementptr inbounds i8, ptr %1, i64 8
  %4 = load i64, ptr %3, align 8
  %5 = tail call ptr @expr_new(i32 noundef 55, i64 %4) #8
  tail call void @advance(ptr noundef %0) #8
  %6 = getelementptr inbounds i8, ptr %0, i64 40
  %7 = load i32, ptr %6, align 8
  %8 = zext i32 %7 to i64
  %9 = getelementptr inbounds [190 x %struct.ParseRule], ptr @rules, i64 0, i64 %8
  %10 = load ptr, ptr %9, align 8
  %.not = icmp eq ptr %10, null
  br i1 %.not, label %19, label %11

11:                                               ; preds = %2
  %12 = icmp eq i32 %7, 3
  br i1 %12, label %13, label %39

13:                                               ; preds = %11
  %14 = getelementptr inbounds i8, ptr %0, i64 184
  %15 = load i32, ptr %14, align 8
  %16 = zext i32 %15 to i64
  %17 = getelementptr inbounds [190 x %struct.ParseRule], ptr @rules, i64 0, i64 %16
  %18 = load ptr, ptr %17, align 8
  %.not54 = icmp eq ptr %18, null
  br i1 %.not54, label %19, label %39

19:                                               ; preds = %13, %2
  %20 = getelementptr inbounds i8, ptr %5, i64 16
  %21 = load i16, ptr %20, align 8
  %22 = and i16 %21, -256
  %23 = or disjoint i16 %22, 29
  store i16 %23, ptr %20, align 8
  %24 = getelementptr inbounds i8, ptr %5, i64 24
  store ptr %1, ptr %24, align 8
  %25 = getelementptr inbounds i8, ptr %5, i64 8
  %26 = getelementptr inbounds i8, ptr %0, i64 56
  %27 = load i64, ptr %25, align 8
  %28 = load i64, ptr %26, align 8
  %.not.unshifted.i = xor i64 %28, %27
  %.not.i = icmp ult i64 %.not.unshifted.i, 4294967296
  br i1 %.not.i, label %30, label %29

29:                                               ; preds = %19
  %.sroa.33.0.extract.shift.i = lshr i64 %27, 16
  br label %extend_span_with_token.exit

30:                                               ; preds = %19
  %.sroa.4.0.extract.shift.i = lshr i64 %27, 24
  %31 = trunc i64 %28 to i32
  %32 = lshr i32 %31, 24
  %33 = lshr i32 %31, 16
  %34 = trunc i64 %.sroa.4.0.extract.shift.i to i32
  %35 = sub i32 %33, %34
  %36 = add i32 %35, %32
  %37 = zext i32 %36 to i64
  br label %extend_span_with_token.exit

extend_span_with_token.exit:                      ; preds = %29, %30
  %.sroa.311.0.i = phi i64 [ %.sroa.33.0.extract.shift.i, %29 ], [ %37, %30 ]
  %.sroa.311.0.insert.ext.i = shl nuw i64 %.sroa.311.0.i, 16
  %.sroa.311.0.insert.shift.i = and i64 %.sroa.311.0.insert.ext.i, 16711680
  %38 = and i64 %27, -16711681
  %.sroa.010.0.insert.insert.i = or disjoint i64 %.sroa.311.0.insert.shift.i, %38
  store i64 %.sroa.010.0.insert.insert.i, ptr %25, align 8
  br label %92

39:                                               ; preds = %13, %11
  %40 = load ptr, ptr @expr_arena, align 8
  %41 = ptrtoint ptr %1 to i64
  %42 = ptrtoint ptr %40 to i64
  %43 = sub i64 %41, %42
  %44 = sdiv exact i64 %43, 56
  %45 = trunc i64 %44 to i32
  %46 = getelementptr inbounds i8, ptr %5, i64 24
  store i32 %45, ptr %46, align 8
  %47 = tail call fastcc ptr @parse_precedence(ptr noundef nonnull %0, i32 noundef 1)
  %48 = icmp eq ptr %47, null
  br i1 %48, label %.critedge, label %49

49:                                               ; preds = %39
  %50 = getelementptr inbounds i8, ptr %47, i64 16
  %51 = load i16, ptr %50, align 8
  %52 = and i16 %51, 255
  %.not55 = icmp eq i16 %52, 0
  br i1 %.not55, label %54, label %.split

.split:                                           ; preds = %49
  %53 = ptrtoint ptr %47 to i64
  br label %.critedge

54:                                               ; preds = %49
  %55 = load ptr, ptr @poisoned_expr, align 8
  br label %92

.critedge:                                        ; preds = %39, %.split
  %.sink = phi i64 [ %53, %.split ], [ 0, %39 ]
  %.sink70 = load ptr, ptr @expr_arena, align 8
  %56 = ptrtoint ptr %.sink70 to i64
  %57 = sub i64 %.sink, %56
  %phi.call.in = sdiv exact i64 %57, 56
  %phi.call = trunc i64 %phi.call.in to i32
  %58 = getelementptr inbounds i8, ptr %5, i64 28
  store i32 %phi.call, ptr %58, align 4
  %59 = load i32, ptr %6, align 8
  %60 = icmp eq i32 %59, 7
  br i1 %60, label %.critedge58, label %61

61:                                               ; preds = %.critedge
  %62 = getelementptr inbounds i8, ptr %0, i64 48
  %63 = tail call ptr @token_type_to_string(i32 noundef 7) #8
  %64 = load i64, ptr %62, align 8
  tail call void (i64, ptr, ...) @sema_error_at(i64 %64, ptr noundef nonnull @.str.22, ptr noundef %63) #8
  %65 = load ptr, ptr @poisoned_expr, align 8
  br label %92

.critedge58:                                      ; preds = %.critedge
  tail call void @advance(ptr noundef nonnull %0) #8
  %66 = tail call fastcc ptr @parse_precedence(ptr noundef nonnull %0, i32 noundef 2)
  %67 = icmp eq ptr %66, null
  br i1 %67, label %.critedge2, label %68

68:                                               ; preds = %.critedge58
  %69 = getelementptr inbounds i8, ptr %66, i64 16
  %70 = load i16, ptr %69, align 8
  %71 = and i16 %70, 255
  %.not56 = icmp eq i16 %71, 0
  br i1 %.not56, label %73, label %.split49

.split49:                                         ; preds = %68
  %72 = ptrtoint ptr %66 to i64
  br label %.critedge2

73:                                               ; preds = %68
  %74 = load ptr, ptr @poisoned_expr, align 8
  br label %92

.critedge2:                                       ; preds = %.critedge58, %.split49
  %.sink71 = phi i64 [ %72, %.split49 ], [ 0, %.critedge58 ]
  %.sink73 = load ptr, ptr @expr_arena, align 8
  %75 = ptrtoint ptr %.sink73 to i64
  %76 = sub i64 %.sink71, %75
  %phi.call51.in = sdiv exact i64 %76, 56
  %phi.call51 = trunc i64 %phi.call51.in to i32
  %77 = getelementptr inbounds i8, ptr %5, i64 32
  store i32 %phi.call51, ptr %77, align 8
  %78 = getelementptr inbounds i8, ptr %5, i64 8
  %79 = getelementptr inbounds i8, ptr %0, i64 56
  %80 = load i64, ptr %78, align 8
  %81 = load i64, ptr %79, align 8
  %.not.unshifted.i59 = xor i64 %81, %80
  %.not.i60 = icmp ult i64 %.not.unshifted.i59, 4294967296
  br i1 %.not.i60, label %83, label %82

82:                                               ; preds = %.critedge2
  %.sroa.33.0.extract.shift.i61 = lshr i64 %80, 16
  br label %extend_span_with_token.exit67

83:                                               ; preds = %.critedge2
  %.sroa.4.0.extract.shift.i66 = lshr i64 %80, 24
  %84 = trunc i64 %81 to i32
  %85 = lshr i32 %84, 24
  %86 = lshr i32 %84, 16
  %87 = trunc i64 %.sroa.4.0.extract.shift.i66 to i32
  %88 = sub i32 %86, %87
  %89 = add i32 %88, %85
  %90 = zext i32 %89 to i64
  br label %extend_span_with_token.exit67

extend_span_with_token.exit67:                    ; preds = %82, %83
  %.sroa.311.0.i62 = phi i64 [ %.sroa.33.0.extract.shift.i61, %82 ], [ %90, %83 ]
  %.sroa.311.0.insert.ext.i63 = shl nuw i64 %.sroa.311.0.i62, 16
  %.sroa.311.0.insert.shift.i64 = and i64 %.sroa.311.0.insert.ext.i63, 16711680
  %91 = and i64 %80, -16711681
  %.sroa.010.0.insert.insert.i65 = or disjoint i64 %.sroa.311.0.insert.shift.i64, %91
  store i64 %.sroa.010.0.insert.insert.i65, ptr %78, align 8
  br label %92

92:                                               ; preds = %extend_span_with_token.exit67, %73, %61, %54, %extend_span_with_token.exit
  %.047 = phi ptr [ %5, %extend_span_with_token.exit67 ], [ %74, %73 ], [ %65, %61 ], [ %55, %54 ], [ %5, %extend_span_with_token.exit ]
  ret ptr %.047
}